 InChI_MAIN

 Timestamp is 46cf2156 (Fri Aug 24 14:20:06 2007)

 Preferred load address is 00400000

 Start         Length     Name                   Class
 0001:00000000 00019e1cH .text                   CODE
 0002:00000000 000000fcH .idata$5                DATA
 0002:00000100 00000790H .rdata                  DATA
 0002:00000890 00000028H .idata$2                DATA
 0002:000008b8 00000014H .idata$3                DATA
 0002:000008cc 000000fcH .idata$4                DATA
 0002:000009c8 00000498H .idata$6                DATA
 0002:00000e60 00000000H .edata                  DATA
 0003:00000000 00000004H .CRT$XCA                DATA
 0003:00000004 00000004H .CRT$XCZ                DATA
 0003:00000008 00000004H .CRT$XIA                DATA
 0003:0000000c 0000000cH .CRT$XIC                DATA
 0003:00000018 00000004H .CRT$XIZ                DATA
 0003:0000001c 00000004H .CRT$XPA                DATA
 0003:00000020 00000004H .CRT$XPX                DATA
 0003:00000024 00000004H .CRT$XPZ                DATA
 0003:00000028 00000004H .CRT$XTA                DATA
 0003:0000002c 00000004H .CRT$XTZ                DATA
 0003:00000030 00003f10H .data                   DATA
 0003:00003f40 00001e44H .bss                    DATA
 0004:00000000 00000058H .rsrc$01                DATA
 0004:00000060 00000518H .rsrc$02                DATA

  Address         Publics by Value              Rva+Base     Lib:Object

 0001:00000000       _e_swap                    00401000 f   e_0dstereo.obj
 0001:00000030       _e_insertions_sort         00401030 f   e_0dstereo.obj
 0001:000000b0       _e_bCanAtomHaveAStereoBond 004010b0 f   e_0dstereo.obj
 0001:00000170       _e_bCanAtomBeMiddleAllene  00401170 f   e_0dstereo.obj
 0001:00000190       _e_bCanAtomBeTerminalAllene 00401190 f   e_0dstereo.obj
 0001:000001b0       _e_GetNewStereo            004011b0 f   e_0dstereo.obj
 0001:00000240       _set_0D_stereo_parities    00401240 f   e_0dstereo.obj
 0001:00004410       _Clear3D2Dstereo           00405410 f   e_0dstereo.obj
 0001:00004480       _e_inchi_print             00405480 f   e_ichi_io.obj
 0001:000044d0       _e_my_fprintf              004054d0 f   e_ichi_io.obj
 0001:00004550       _e_my_fileprintf           00405550 f   e_ichi_io.obj
 0001:000045e0       _e_PrintFileName           004055e0 f   e_ichi_io.obj
 0001:00004600       _e_fgetsTab                00405600 f   e_ichi_io.obj
 0001:00004660       _e_my_fgetsTab             00405660 f   e_ichi_io.obj
 0001:00004700       _e_my_fgetsTab1            00405700 f   e_ichi_io.obj
 0001:00004780       _fgets_up_to_lf            00405780 f   e_ichi_io.obj
 0001:00004820       _my_fgetsUpToLfOrTab       00405820 f   e_ichi_io.obj
 0001:00004900       _e_InchiTimeGet            00405900 f   e_ichi_io.obj
 0001:00004920       _e_InchiTimeMsecDiff       00405920 f   e_ichi_io.obj
 0001:00004a60       _e_InchiTimeElapsed        00405a60 f   e_ichi_io.obj
 0001:00004a90       _e_InchiTimeAddMsec        00405a90 f   e_ichi_io.obj
 0001:00004ac0       _e_bInchiTimeIsOver        00405ac0 f   e_ichi_io.obj
 0001:00004b80       _e_ReadCommandLineParms    00405b80 f   e_ichi_parms.obj
 0001:000069e0       _e_PrintInputParms         004079e0 f   e_ichi_parms.obj
 0001:00006fa0       _e_HelpCommandLineParms    00407fa0 f   e_ichi_parms.obj
 0001:00007140       _e_HelpCommandLineParmsReduced 00408140 f   e_ichi_parms.obj
 0001:000072b0       _e_OpenFiles               004082b0 f   e_ichi_parms.obj
 0001:00007680       _e_DetectInputINChIFileType 00408680 f   e_ichi_parms.obj
 0001:00007b00       _MyHandlerRoutine@4        00408b00 f   e_ichimain_a.obj
 0001:00007b30       _e_WasInterrupted          00408b30 f   e_ichimain_a.obj
 0001:00007b40       _main                      00408b40 f   e_ichimain_a.obj
 0001:00008840       _e_MakeOutputHeader        00409840 f   e_ichimain_a.obj
 0001:000089e0       _e_GetChiralFlagString     004099e0 f   e_ichimain_a.obj
 0001:00008a20       _e_FreeInchi_Atom          00409a20 f   e_inchi_atom.obj
 0001:00008a40       _e_FreeInchi_Stereo0D      00409a40 f   e_inchi_atom.obj
 0001:00008a60       _e_CreateInchi_Atom        00409a60 f   e_inchi_atom.obj
 0001:00008a70       _e_CreateInchi_Stereo0D    00409a70 f   e_inchi_atom.obj
 0001:00008a80       _e_FreeInchi_Input         00409a80 f   e_inchi_atom.obj
 0001:00008ab0       _e_RemoveRedundantNeighbors 00409ab0 f   e_inchi_atom.obj
 0001:00008b90       _mol_to_inchi_Atom         00409b90 f   e_mol2atom.obj
 0001:00009280       _mol_to_inchi_Atom_xyz     0040a280 f   e_mol2atom.obj
 0001:00009620       _GetMolfileNumber          0040a620 f   e_mol2atom.obj
 0001:000096b0       _MolfileToInchi_Atom       0040a6b0 f   e_mol2atom.obj
 0001:00009980       _e_MolfileToInchi_Input    0040a980 f   e_mol2atom.obj
 0001:00009c30       _str_fgetc                 0040ac30 f   e_readinch.obj
 0001:00009c40       _str_fgets                 0040ac40 f   e_readinch.obj
 0001:00009ca0       _e_my_fgets                0040aca0 f   e_readinch.obj
 0001:00009d40       _e_INChIToInchi_Atom       0040ad40 f   e_readinch.obj
 0001:00009da0       _e_FindToken               0040ada0 f   e_readinch.obj
 0001:00009e60       _e_LoadLine                0040ae60 f   e_readinch.obj
 0001:00009f40       _ee_INChIToIbChI_Atom      0040af40 f   e_readinch.obj
 0001:0000df40       _e_INChIToInchi_Input      0040ef40 f   e_readinch.obj
 0001:0000e360       _e_AddMOLfileError         0040f360 f   e_readmol.obj
 0001:0000e4a0       _e_delete_mol_data         0040f4a0 f   e_readmol.obj
 0001:0000e500       _e_read_mol_file           0040f500 f   e_readmol.obj
 0001:00010070       _e_bypass_sdf_data_items   00411070 f   e_readmol.obj
 0001:00010750       _e_read_sdfile_segment     00411750 f   e_readmol.obj
 0001:000107e0       _e_CopyMOLfile             004117e0 f   e_readmol.obj
 0001:00010980       _e_ReadStructure           00411980 f   e_readstru.obj
 0001:00010d50       _e_TreatReadTheStructureErrors 00411d50 f   e_readstru.obj
 0001:000110d0       _e_GetInpStructErrorType   004120d0 f   e_readstru.obj
 0001:00011120       _e_extract_ChargeRadical   00412120 f   e_util.obj
 0001:000112a0       _e_normalize_name          004122a0 f   e_util.obj
 0001:00011360       _e_mystrncpy               00412360 f   e_util.obj
 0001:000113d0       _e_LtrimRtrim              004123d0 f   e_util.obj
 0001:000114b0       _e_remove_trailing_spaces  004124b0 f   e_util.obj
 0001:00011510       _e_remove_one_lf           00412510 f   e_util.obj
 0001:00011550       _e_is_in_the_slist         00412550 f   e_util.obj
 0001:00011580       _e_is_element_a_metal      00412580 f   e_util.obj
 0001:00011630       _strstr                    00412630 f   LIBC:strstr.obj
 0001:000116b0       _free                      004126b0 f   LIBC:free.obj
 0001:000116df       _calloc                    004126df f   LIBC:calloc.obj
 0001:00011760       _strrchr                   00412760 f   LIBC:strrchr.obj
 0001:00011790       _memmove                   00412790 f   LIBC:memmove.obj
 0001:00011ac5       _strtol                    00412ac5 f   LIBC:strtol.obj
 0001:00011cf0       _strpbrk                   00412cf0 f   LIBC:strpbrk.obj
 0001:00011d2a       __isctype                  00412d2a f   LIBC:isctype.obj
 0001:00011d9f       _floor                     00412d9f f   LIBC:floor.obj
 0001:00011e6e       __fpmath                   00412e6e f   LIBC:fpinit.obj
 0001:00011e85       __fpclear                  00412e85 f   LIBC:fpinit.obj
 0001:00011e86       __cfltcvt_init             00412e86 f   LIBC:fpinit.obj
 0001:00011ec0       __ftol                     00412ec0 f   LIBC:ftol.obj
 0001:00011ee7       ___initstdio               00412ee7 f   LIBC:_file.obj
 0001:00011f8c       ___endstdio                00412f8c f   LIBC:_file.obj
 0001:00011fa0       _vfprintf                  00412fa0 f   LIBC:vfprintf.obj
 0001:00011fd1       _fprintf                   00412fd1 f   LIBC:fprintf.obj
 0001:00012003       _fgetc                     00413003 f   LIBC:fgetc.obj
 0001:00012030       _strchr                    00413030 f   LIBC:strchr.obj
 0001:00012036       ___from_strstr_to_strchr   00413036 f   LIBC:strchr.obj
 0001:000120ec       _fgets                     004130ec f   LIBC:fgets.obj
 0001:00012143       _clock                     00413143 f   LIBC:clock.obj
 0001:00012186       ___inittime                00413186 f   LIBC:clock.obj
 0001:000121bb       _malloc                    004131bb f   LIBC:malloc.obj
 0001:000121cd       __nh_malloc                004131cd f   LIBC:malloc.obj
 0001:000121f9       __heap_alloc               004131f9 f   LIBC:malloc.obj
 0001:0001222f       __cinit                    0041322f f   LIBC:crt0dat.obj
 0001:0001225c       _exit                      0041325c f   LIBC:crt0dat.obj
 0001:0001226d       __exit                     0041326d f   LIBC:crt0dat.obj
 0001:00012331       _strtod                    00413331 f   LIBC:strtod.obj
 0001:000123cb       _toupper                   004133cb f   LIBC:toupper.obj
 0001:000124a0       _strncpy                   004134a0 f   LIBC:strncpy.obj
 0001:0001259e       _fclose                    0041359e f   LIBC:fclose.obj
 0001:000125f4       __fsopen                   004135f4 f   LIBC:fopen.obj
 0001:00012614       _fopen                     00413614 f   LIBC:fopen.obj
 0001:00012627       _sprintf                   00413627 f   LIBC:sprintf.obj
 0001:00012680       _strcspn                   00413680 f   LIBC:strcspn.obj
 0001:000126be       _time                      004136be f   LIBC:time.obj
 0001:000127a0       _strspn                    004137a0 f   LIBC:strspn.obj
 0001:000127e0       _tolower                   004137e0 f   LIBC:tolower.obj
 0001:000128ab       _fputs                     004138ab f   LIBC:fputs.obj
 0001:000128ee       _ftell                     004138ee f   LIBC:ftell.obj
 0001:00012a46       _fseek                     00413a46 f   LIBC:fseek.obj
 0001:00012ae0       _memchr                    00413ae0 f   LIBC:memchr.obj
 0001:00012b85       _mainCRTStartup            00413b85 f   LIBC:crt0.obj
 0001:00012c64       __amsg_exit                00413c64 f   LIBC:crt0.obj
 0001:00012cad       __heap_init                00413cad f   LIBC:heapinit.obj
 0001:00012ce9       ___sbh_heap_init           00413ce9 f   LIBC:sbheap.obj
 0001:00012d27       ___sbh_find_block          00413d27 f   LIBC:sbheap.obj
 0001:00012d52       ___sbh_free_block          00413d52 f   LIBC:sbheap.obj
 0001:0001307d       ___sbh_alloc_block         0041407d f   LIBC:sbheap.obj
 0001:00013386       ___sbh_alloc_new_region    00414386 f   LIBC:sbheap.obj
 0001:00013437       ___sbh_alloc_new_group     00414437 f   LIBC:sbheap.obj
 0001:00013532       ___sbh_resize_block        00414532 f   LIBC:sbheap.obj
 0001:00013830       _memset                    00414830 f   LIBC:memset.obj
 0001:00013888       __callnewh                 00414888 f   LIBC:handler.obj
 0001:000138a3       ___crtGetStringTypeA       004148a3 f   LIBC:a_str.obj
 0001:000139ec       __handle_qnan1             004149ec f   LIBC:fpexcept.obj
 0001:00013a3f       __except1                  00414a3f f   LIBC:fpexcept.obj
 0001:00013ad7       __raise_exc                00414ad7 f   LIBC:fpexcept.obj
 0001:00013d8a       __handle_exc               00414d8a f   LIBC:fpexcept.obj
 0001:00013fa1       __umatherr                 00414fa1 f   LIBC:fpexcept.obj
 0001:00014029       __set_errno                00415029 f   LIBC:fpexcept.obj
 0001:00014074       __errcode                  00415074 f   LIBC:fpexcept.obj
 0001:000140a1       __frnd                     004150a1 f   LIBC:frnd.obj
 0001:000140b3       __set_exp                  004150b3 f   LIBC:util.obj
 0001:000140dc       __sptype                   004150dc f   LIBC:util.obj
 0001:00014136       __decomp                   00415136 f   LIBC:util.obj
 0001:000141f7       __statfp                   004151f7 f   LIBC:fpctrl.obj
 0001:00014205       __clrfp                    00415205 f   LIBC:fpctrl.obj
 0001:00014214       __ctrlfp                   00415214 f   LIBC:fpctrl.obj
 0001:00014237       __set_statfp               00415237 f   LIBC:fpctrl.obj
 0001:0001428d       __setdefaultprecision      0041528d f   LIBC:fp8.obj
 0001:0001429f       __ms_p5_test_fdiv          0041529f f   LIBC:testfdiv.obj
 0001:000142dd       __ms_p5_mp_test_fdiv       004152dd f   LIBC:testfdiv.obj
 0001:00014306       __forcdecpt                00415306 f   LIBC:cvt.obj
 0001:00014360       __cropzeros                00415360 f   LIBC:cvt.obj
 0001:000143ae       __positive                 004153ae f   LIBC:cvt.obj
 0001:000143c6       __fassign                  004153c6 f   LIBC:cvt.obj
 0001:00014404       __cftoe                    00415404 f   LIBC:cvt.obj
 0001:00014508       __cftof                    00415508 f   LIBC:cvt.obj
 0001:000145e6       __cftog                    004155e6 f   LIBC:cvt.obj
 0001:000146cb       __cfltcvt                  004156cb f   LIBC:cvt.obj
 0001:00014741       __ioinit                   00415741 f   LIBC:ioinit.obj
 0001:000148ec       __fcloseall                004158ec f   LIBC:closeall.obj
 0001:00014944       _fflush                    00415944 f   LIBC:fflush.obj
 0001:0001497f       __flush                    0041597f f   LIBC:fflush.obj
 0001:000149db       __flushall                 004159db f   LIBC:fflush.obj
 0001:00014a51       __stbuf                    00415a51 f   LIBC:_sftbuf.obj
 0001:00014ade       __ftbuf                    00415ade f   LIBC:_sftbuf.obj
 0001:00014b1b       __output                   00415b1b f   LIBC:output.obj
 0001:00015325       __filbuf                   00416325 f   LIBC:_filbuf.obj
 0001:00015400       __aulldiv                  00416400 f   LIBC:ulldiv.obj
 0001:00015470       __allmul                   00416470 f   LIBC:llmul.obj
 0001:000154a4       __fltin                    004164a4 f   LIBC:cfin.obj
 0001:00015540       _strlen                    00416540 f   LIBC:strlen.obj
 0001:000155bb       ___crtLCMapStringA         004165bb f   LIBC:a_map.obj
 0001:0001580a       __close                    0041680a f   LIBC:close.obj
 0001:000158bd       __freebuf                  004168bd f   LIBC:_freebuf.obj
 0001:000158e8       __openfile                 004168e8 f   LIBC:_open.obj
 0001:00015a58       __getstream                00416a58 f   LIBC:stream.obj
 0001:00015ad0       __flsbuf                   00416ad0 f   LIBC:_flsbuf.obj
 0001:00015be5       ___loctotime_t             00416be5 f   LIBC:dtoxtime.obj
 0001:00015ca7       _fwrite                    00416ca7 f   LIBC:fwrite.obj
 0001:00015db1       __lseek                    00416db1 f   LIBC:lseek.obj
 0001:00015e4b       __XcptFilter               00416e4b f   LIBC:winxfltr.obj
 0001:00015fcf       __setenvp                  00416fcf f   LIBC:stdenvp.obj
 0001:00016088       __setargv                  00417088 f   LIBC:stdargv.obj
 0001:000162d5       ___crtGetEnvironmentStringsA 004172d5 f   LIBC:a_env.obj
 0001:00016408       __global_unwind2           00417408 f   LIBC:exsup.obj
 0001:0001644a       __local_unwind2            0041744a f   LIBC:exsup.obj
 0001:000164a2       __NLG_Return2              004174a2 f   LIBC:exsup.obj
 0001:000164b2       __abnormal_termination     004174b2 f   LIBC:exsup.obj
 0001:000164d5       __NLG_Notify1              004174d5 f   LIBC:exsup.obj
 0001:000164de       __NLG_Notify               004174de f   LIBC:exsup.obj
 0001:000164f1       __NLG_Dispatch             004174f1 f   LIBC:exsup.obj
 0001:00016500       __except_handler3          00417500 f   LIBC:exsup3.obj
 0001:000165bd       __seh_longjmp_unwind@4     004175bd f   LIBC:exsup3.obj
 0001:000165d8       __FF_MSGBANNER             004175d8 f   LIBC:crt0msg.obj
 0001:00016611       __NMSG_WRITE               00417611 f   LIBC:crt0msg.obj
 0001:00016770       __alloca_probe             00417770 f   LIBC:chkstk.obj
 0001:00016770       __chkstk                   00417770 f   LIBC:chkstk.obj
 0001:0001679f       __matherr                  0041779f f   LIBC:matherr.obj
 0001:000167a2       __control87                004177a2 f   LIBC:ieee87.obj
 0001:000167d7       __controlfp                004177d7 f   LIBC:ieee87.obj
 0001:00016908       __ZeroTail                 00417908 f   LIBC:intrncvt.obj
 0001:00016951       __IncMan                   00417951 f   LIBC:intrncvt.obj
 0001:000169a7       __RoundMan                 004179a7 f   LIBC:intrncvt.obj
 0001:00016a33       __CopyMan                  00417a33 f   LIBC:intrncvt.obj
 0001:00016a4e       __FillZeroMan              00417a4e f   LIBC:intrncvt.obj
 0001:00016a5a       __IsZeroMan                00417a5a f   LIBC:intrncvt.obj
 0001:00016a75       __ShrMan                   00417a75 f   LIBC:intrncvt.obj
 0001:00016b02       __ld12cvt                  00417b02 f   LIBC:intrncvt.obj
 0001:00016c6e       __ld12tod                  00417c6e f   LIBC:intrncvt.obj
 0001:00016c84       __ld12tof                  00417c84 f   LIBC:intrncvt.obj
 0001:00016c9a       __atodbl                   00417c9a f   LIBC:intrncvt.obj
 0001:00016cc7       __atoflt                   00417cc7 f   LIBC:intrncvt.obj
 0001:00016d00       _strcpy                    00417d00 f   LIBC:strcat.obj
 0001:00016d10       _strcat                    00417d10 f   LIBC:strcat.obj
 0001:00016df0       __fptostr                  00417df0 f   LIBC:_fptostr.obj
 0001:00016e67       __fltout                   00417e67 f   LIBC:cfout.obj
 0001:00016ecb       ___dtold                   00417ecb f   LIBC:cfout.obj
 0001:00016f81       __fptrap                   00417f81 f   LIBC:crt0fp.obj
 0001:00016f8a       __commit                   00417f8a f   LIBC:commit.obj
 0001:00016fe1       __write                    00417fe1 f   LIBC:write.obj
 0001:0001718e       __isatty                   0041818e f   LIBC:isatty.obj
 0001:000171b4       _wctomb                    004181b4 f   LIBC:wctomb.obj
 0001:00017220       __aullrem                  00418220 f   LIBC:ullrem.obj
 0001:00017295       __read                     00418295 f   LIBC:read.obj
 0001:0001748b       __getbuf                   0041848b f   LIBC:_getbuf.obj
 0001:000174cf       ___strgtold12              004184cf f   LIBC:strgtold.obj
 0001:000179a0       __dosmaperr                004189a0 f   LIBC:dosmap.obj
 0001:00017a07       __alloc_osfhnd             00418a07 f   LIBC:osfinfo.obj
 0001:00017a9c       __set_osfhnd               00418a9c f   LIBC:osfinfo.obj
 0001:00017b13       __free_osfhnd              00418b13 f   LIBC:osfinfo.obj
 0001:00017b8d       __get_osfhandle            00418b8d f   LIBC:osfinfo.obj
 0001:00017bca       __sopen                    00418bca f   LIBC:open.obj
 0001:00017e83       ___tzset                   00418e83 f   LIBC:tzset.obj
 0001:00017e98       __tzset                    00418e98 f   LIBC:tzset.obj
 0001:000180f6       __isindst                  004190f6 f   LIBC:tzset.obj
 0001:000183f0       _memcpy                    004193f0 f   LIBC:memcpy.obj
 0001:00018725       __setmbcp                  00419725 f   LIBC:mbctype.obj
 0001:00018ae9       ___initmbctable            00419ae9 f   LIBC:mbctype.obj
 0001:00018b05       ___crtMessageBoxA          00419b05 f   LIBC:crtmbox.obj
 0001:00018b8e       ___addl                    00419b8e f   LIBC:mantold.obj
 0001:00018baf       ___add_12                  00419baf f   LIBC:mantold.obj
 0001:00018c0d       ___shl_12                  00419c0d f   LIBC:mantold.obj
 0001:00018c3b       ___shr_12                  00419c3b f   LIBC:mantold.obj
 0001:00018c68       ___mtold12                 00419c68 f   LIBC:mantold.obj
 0001:00018d2f       _$I10_OUTPUT               00419d2f f   LIBC:x10fout.obj
 0001:00018fc2       ___ld12mul                 00419fc2 f   LIBC:tenpow.obj
 0001:000191e2       ___multtenpow12            0041a1e2 f   LIBC:tenpow.obj
 0001:0001925e       __chsize                   0041a25e f   LIBC:chsize.obj
 0001:000193a4       _atol                      0041a3a4 f   LIBC:atox.obj
 0001:00019430       _strcmp                    0041a430 f   LIBC:strcmp.obj
 0001:000194b4       _getenv                    0041a4b4 f   LIBC:getenv.obj
 0001:00019531       __setmode                  0041a531 f   LIBC:setmode.obj
 0001:000195a7       __mbsnbicoll               0041a5a7 f   LIBC:mbsnbico.obj
 0001:000195e6       ___wtomb_environ           0041a5e6 f   LIBC:wtombenv.obj
 0001:00019654       ___crtCompareStringA       0041a654 f   LIBC:a_cmp.obj
 0001:000198d1       ___crtsetenv               0041a8d1 f   LIBC:setenv.obj
 0001:00019b17       _realloc                   0041ab17 f   LIBC:realloc.obj
 0001:00019c37       __mbschr                   0041ac37 f   LIBC:mbschr.obj
 0001:00019caa       __strdup                   0041acaa f   LIBC:strdup.obj
 0001:00019ce0       _RtlUnwind@16              0041ace0 f   kernel32:KERNEL32.dll
 0001:00019cf0       _memicmp                   0041acf0 f   LIBC:memicmp.obj
 0001:00019cf0       __memicmp                  0041acf0 f   LIBC:memicmp.obj
 0001:00019d90       __stricmp                  0041ad90 f   LIBC:stricmp.obj
 0001:00019d90       __strcmpi                  0041ad90 f   LIBC:stricmp.obj
 0001:00019d90       _stricmp                   0041ad90 f   LIBC:stricmp.obj
 0002:00000000       __imp__SetConsoleCtrlHandler@8 0041b000     kernel32:KERNEL32.dll
 0002:00000004       __imp__CompareStringW@24   0041b004     kernel32:KERNEL32.dll
 0002:00000008       __imp__CompareStringA@24   0041b008     kernel32:KERNEL32.dll
 0002:0000000c       __imp__SetEndOfFile@4      0041b00c     kernel32:KERNEL32.dll
 0002:00000010       __imp__LoadLibraryA@4      0041b010     kernel32:KERNEL32.dll
 0002:00000014       __imp__GetOEMCP@0          0041b014     kernel32:KERNEL32.dll
 0002:00000018       __imp__GetACP@0            0041b018     kernel32:KERNEL32.dll
 0002:0000001c       __imp__GetCPInfo@8         0041b01c     kernel32:KERNEL32.dll
 0002:00000020       __imp__CreateFileA@28      0041b020     kernel32:KERNEL32.dll
 0002:00000024       __imp__SetStdHandle@8      0041b024     kernel32:KERNEL32.dll
 0002:00000028       __imp__HeapFree@12         0041b028     kernel32:KERNEL32.dll
 0002:0000002c       __imp__HeapAlloc@12        0041b02c     kernel32:KERNEL32.dll
 0002:00000030       __imp__GetSystemTimeAsFileTime@4 0041b030     kernel32:KERNEL32.dll
 0002:00000034       __imp__ExitProcess@4       0041b034     kernel32:KERNEL32.dll
 0002:00000038       __imp__TerminateProcess@8  0041b038     kernel32:KERNEL32.dll
 0002:0000003c       __imp__GetCurrentProcess@0 0041b03c     kernel32:KERNEL32.dll
 0002:00000040       __imp__GetTimeZoneInformation@4 0041b040     kernel32:KERNEL32.dll
 0002:00000044       __imp__GetSystemTime@4     0041b044     kernel32:KERNEL32.dll
 0002:00000048       __imp__GetLocalTime@4      0041b048     kernel32:KERNEL32.dll
 0002:0000004c       __imp__GetCommandLineA@0   0041b04c     kernel32:KERNEL32.dll
 0002:00000050       __imp__GetVersion@0        0041b050     kernel32:KERNEL32.dll
 0002:00000054       __imp__HeapDestroy@4       0041b054     kernel32:KERNEL32.dll
 0002:00000058       __imp__HeapCreate@12       0041b058     kernel32:KERNEL32.dll
 0002:0000005c       __imp__VirtualFree@12      0041b05c     kernel32:KERNEL32.dll
 0002:00000060       __imp__VirtualAlloc@16     0041b060     kernel32:KERNEL32.dll
 0002:00000064       __imp__HeapReAlloc@16      0041b064     kernel32:KERNEL32.dll
 0002:00000068       __imp__MultiByteToWideChar@24 0041b068     kernel32:KERNEL32.dll
 0002:0000006c       __imp__GetStringTypeA@20   0041b06c     kernel32:KERNEL32.dll
 0002:00000070       __imp__GetStringTypeW@16   0041b070     kernel32:KERNEL32.dll
 0002:00000074       __imp__RaiseException@16   0041b074     kernel32:KERNEL32.dll
 0002:00000078       __imp__GetProcAddress@8    0041b078     kernel32:KERNEL32.dll
 0002:0000007c       __imp__GetModuleHandleA@4  0041b07c     kernel32:KERNEL32.dll
 0002:00000080       __imp__SetHandleCount@4    0041b080     kernel32:KERNEL32.dll
 0002:00000084       __imp__GetStdHandle@4      0041b084     kernel32:KERNEL32.dll
 0002:00000088       __imp__GetFileType@4       0041b088     kernel32:KERNEL32.dll
 0002:0000008c       __imp__GetStartupInfoA@4   0041b08c     kernel32:KERNEL32.dll
 0002:00000090       __imp__WideCharToMultiByte@32 0041b090     kernel32:KERNEL32.dll
 0002:00000094       __imp__LCMapStringA@24     0041b094     kernel32:KERNEL32.dll
 0002:00000098       __imp__LCMapStringW@24     0041b098     kernel32:KERNEL32.dll
 0002:0000009c       __imp__GetLastError@0      0041b09c     kernel32:KERNEL32.dll
 0002:000000a0       __imp__CloseHandle@4       0041b0a0     kernel32:KERNEL32.dll
 0002:000000a4       __imp__SetFilePointer@16   0041b0a4     kernel32:KERNEL32.dll
 0002:000000a8       __imp__UnhandledExceptionFilter@4 0041b0a8     kernel32:KERNEL32.dll
 0002:000000ac       __imp__GetModuleFileNameA@12 0041b0ac     kernel32:KERNEL32.dll
 0002:000000b0       __imp__FreeEnvironmentStringsA@4 0041b0b0     kernel32:KERNEL32.dll
 0002:000000b4       __imp__FreeEnvironmentStringsW@4 0041b0b4     kernel32:KERNEL32.dll
 0002:000000b8       __imp__GetEnvironmentStrings@0 0041b0b8     kernel32:KERNEL32.dll
 0002:000000bc       __imp__GetEnvironmentStringsW@0 0041b0bc     kernel32:KERNEL32.dll
 0002:000000c0       __imp__RtlUnwind@16        0041b0c0     kernel32:KERNEL32.dll
 0002:000000c4       __imp__WriteFile@20        0041b0c4     kernel32:KERNEL32.dll
 0002:000000c8       __imp__FlushFileBuffers@4  0041b0c8     kernel32:KERNEL32.dll
 0002:000000cc       __imp__ReadFile@20         0041b0cc     kernel32:KERNEL32.dll
 0002:000000d0       __imp__SetEnvironmentVariableA@8 0041b0d0     kernel32:KERNEL32.dll
 0002:000000d4       \177KERNEL32_NULL_THUNK_DATA 0041b0d4     kernel32:KERNEL32.dll
 0002:000000d8       __imp__INCHIGEN_Create@0   0041b0d8     libinchi:libinchi.dll
 0002:000000dc       __imp__INCHIGEN_Setup@12   0041b0dc     libinchi:libinchi.dll
 0002:000000e0       __imp__INCHIGEN_DoNormalization@8 0041b0e0     libinchi:libinchi.dll
 0002:000000e4       __imp__INCHIGEN_DoCanonicalization@8 0041b0e4     libinchi:libinchi.dll
 0002:000000e8       __imp__INCHIGEN_DoSerialization@12 0041b0e8     libinchi:libinchi.dll
 0002:000000ec       __imp__GetINCHIKeyFromINCHI@8 0041b0ec     libinchi:libinchi.dll
 0002:000000f0       __imp__INCHIGEN_Reset@12   0041b0f0     libinchi:libinchi.dll
 0002:000000f4       __imp__INCHIGEN_Destroy@4  0041b0f4     libinchi:libinchi.dll
 0002:000000f8       \177libinchi_NULL_THUNK_DATA 0041b0f8     libinchi:libinchi.dll
 0002:00000100       __real@8@3ffe8000000000000000 0041b100     e_0dstereo.obj
 0002:00000108       __real@8@00000000000000000000 0041b108     e_0dstereo.obj
 0002:00000110       __real@8@4005c800000000000000 0041b110     e_0dstereo.obj
 0002:00000118       __real@8@3fff8000000000000000 0041b118     e_0dstereo.obj
 0002:00000120       __real@8@3feb8637bd05af6c6800 0041b120     e_0dstereo.obj
 0002:00000128       __real@8@3fe7d6bf94d5e57a4000 0041b128     e_0dstereo.obj
 0002:00000130       __real@8@bfff8000000000000000 0041b130     e_0dstereo.obj
 0002:00000138       __real@8@3ff9f5c28f5c28f5c000 0041b138     e_0dstereo.obj
 0002:00000140       __real@8@3fd78cbccc096f508800 0041b140     e_0dstereo.obj
 0002:00000148       __real@8@3fffc000000000000000 0041b148     e_0dstereo.obj
 0002:00000150       __real@8@3ffdaaaaaaaaaaaaa800 0041b150     e_0dstereo.obj
 0002:00000158       __real@8@bffbccccccccccccd000 0041b158     e_0dstereo.obj
 0002:00000160       __real@8@3fec8637bd05af6c6800 0041b160     e_0dstereo.obj
 0002:00000168       __real@8@3ffbccccccccccccd000 0041b168     e_0dstereo.obj
 0002:00000170       __real@8@4001e000000000000000 0041b170     e_0dstereo.obj
 0002:00000178       __real@8@3ffcab020c49ba5e3800 0041b178     e_0dstereo.obj
 0002:00000180       __real@8@3ffc8000000000000000 0041b180     e_0dstereo.obj
 0002:00000188       __real@8@3ffff333333333333000 0041b188     e_0dstereo.obj
 0002:00000190       __real@8@bffaf5c28f5c28f5c000 0041b190     e_0dstereo.obj
 0002:00000198       __real@8@400c9c3c000000000000 0041b198     e_0dstereo.obj
 0002:000001a0       __real@8@4000a000000000000000 0041b1a0     e_0dstereo.obj
 0002:000001a8       _e_FullMaxClock            0041b1a8     e_ichi_io.obj
 0002:000001ac       _e_HalfMaxClock            0041b1ac     e_ichi_io.obj
 0002:000001b0       __real@8@401effffffff00000000 0041b1b0     e_ichi_parms.obj
 0002:000001b8       __real@8@4008fa00000000000000 0041b1b8     e_ichi_parms.obj
 0002:000001c0       __real@8@3fdddbe6fecebdedd800 0041b1c0     e_mol2atom.obj
 0002:000001c8       __real@8@40078000000000000000 0041b1c8     e_mol2atom.obj
 0002:000001d0       __real@8@3feea7c5ac471b478800 0041b1d0     e_mol2atom.obj
 0002:00000330       __real@8@407effffff0000000000 0041b330     e_readmol.obj
 0002:00000338       __real@8@3f818000000000000000 0041b338     e_readmol.obj
 0002:0000034c       ??_C@_01A@?$AA?$AA@        0041b34c     LIBC:a_str.obj
 0002:00000350       ??_C@_13A@?$AA?$AA?$AA?$AA@ 0041b350     LIBC:a_str.obj
 0002:00000364       ??_C@_03GAFO@_yn?$AA@      0041b364     LIBC:fpexcept.obj
 0002:00000368       ??_C@_03GNLD@_y1?$AA@      0041b368     LIBC:fpexcept.obj
 0002:0000036c       ??_C@_03MHCE@_y0?$AA@      0041b36c     LIBC:fpexcept.obj
 0002:00000370       ??_C@_05PAK@frexp?$AA@     0041b370     LIBC:fpexcept.obj
 0002:00000378       ??_C@_04JKCH@fmod?$AA@     0041b378     LIBC:fpexcept.obj
 0002:00000380       ??_C@_06GGHF@_hypot?$AA@   0041b380     LIBC:fpexcept.obj
 0002:00000388       ??_C@_05JNMC@_cabs?$AA@    0041b388     LIBC:fpexcept.obj
 0002:00000390       ??_C@_05MEKH@ldexp?$AA@    0041b390     LIBC:fpexcept.obj
 0002:00000398       ??_C@_04KAOJ@modf?$AA@     0041b398     LIBC:fpexcept.obj
 0002:000003a0       ??_C@_04EHAJ@fabs?$AA@     0041b3a0     LIBC:fpexcept.obj
 0002:000003a8       ??_C@_05MFBN@floor?$AA@    0041b3a8     LIBC:fpexcept.obj
 0002:000003b0       ??_C@_04JJMP@ceil?$AA@     0041b3b0     LIBC:fpexcept.obj
 0002:000003b8       ??_C@_03JLPI@tan?$AA@      0041b3b8     LIBC:fpexcept.obj
 0002:000003bc       ??_C@_03DLFL@cos?$AA@      0041b3bc     LIBC:fpexcept.obj
 0002:000003c0       ??_C@_03JAMN@sin?$AA@      0041b3c0     LIBC:fpexcept.obj
 0002:000003c4       ??_C@_04LMBE@sqrt?$AA@     0041b3c4     LIBC:fpexcept.obj
 0002:000003cc       ??_C@_05BFPO@atan2?$AA@    0041b3cc     LIBC:fpexcept.obj
 0002:000003d4       ??_C@_04EAGN@atan?$AA@     0041b3d4     LIBC:fpexcept.obj
 0002:000003dc       ??_C@_04OAMO@acos?$AA@     0041b3dc     LIBC:fpexcept.obj
 0002:000003e4       ??_C@_04ELFI@asin?$AA@     0041b3e4     LIBC:fpexcept.obj
 0002:000003ec       ??_C@_04LFAD@tanh?$AA@     0041b3ec     LIBC:fpexcept.obj
 0002:000003f4       ??_C@_04PFKD@cosh?$AA@     0041b3f4     LIBC:fpexcept.obj
 0002:000003fc       ??_C@_04NPAI@sinh?$AA@     0041b3fc     LIBC:fpexcept.obj
 0002:00000404       ??_C@_05IJHH@log10?$AA@    0041b404     LIBC:fpexcept.obj
 0002:0000040c       ??_C@_03BGKD@log?$AA@      0041b40c     LIBC:fpexcept.obj
 0002:00000410       ??_C@_03EGFG@pow?$AA@      0041b410     LIBC:fpexcept.obj
 0002:00000414       ??_C@_03CDGJ@exp?$AA@      0041b414     LIBC:fpexcept.obj
 0002:00000418       __real@8@4015800bf60000000000 0041b418     LIBC:testfdiv.obj
 0002:00000420       __real@8@4014bffffc0000000000 0041b420     LIBC:testfdiv.obj
 0002:00000428       ??_C@_0BK@JEGK@IsProcessorFeaturePresent?$AA@ 0041b428     LIBC:testfdiv.obj
 0002:00000444       ??_C@_08OBID@KERNEL32?$AA@ 0041b444     LIBC:testfdiv.obj
 0002:00000450       ??_C@_05OFLO@e?$CL000?$AA@ 0041b450     LIBC:cvt.obj
 0002:00000458       ___lookuptable             0041b458     LIBC:output.obj
 0002:000004b4       ??_C@_1O@POHA@?$AA?$CI?$AAn?$AAu?$AAl?$AAl?$AA?$CJ?$AA?$AA@ 0041b4b4     LIBC:output.obj
 0002:000004c4       ??_C@_06ONKE@?$CInull?$CJ?$AA@ 0041b4c4     LIBC:output.obj
 0002:000004e8       ??_C@_0P@GGKG@runtime?5error?5?$AA@ 0041b4e8     LIBC:crt0msg.obj
 0002:000004f8       ??_C@_02PIMC@?$AN?6?$AA@   0041b4f8     LIBC:crt0msg.obj
 0002:000004fc       ??_C@_0O@DELO@TLOSS?5error?$AN?6?$AA@ 0041b4fc     LIBC:crt0msg.obj
 0002:0000050c       ??_C@_0N@OMLL@SING?5error?$AN?6?$AA@ 0041b50c     LIBC:crt0msg.obj
 0002:0000051c       ??_C@_0P@OJAK@DOMAIN?5error?$AN?6?$AA@ 0041b51c     LIBC:crt0msg.obj
 0002:0000052c       ??_C@_0CF@EANP@R6028?$AN?6?9?5unable?5to?5initialize?5he@ 0041b52c     LIBC:crt0msg.obj
 0002:00000554       ??_C@_0DF@ECGN@R6027?$AN?6?9?5not?5enough?5space?5for?5lo@ 0041b554     LIBC:crt0msg.obj
 0002:0000058c       ??_C@_0DF@FKAC@R6026?$AN?6?9?5not?5enough?5space?5for?5st@ 0041b58c     LIBC:crt0msg.obj
 0002:000005c4       ??_C@_0CG@DPMN@R6025?$AN?6?9?5pure?5virtual?5function?5c@ 0041b5c4     LIBC:crt0msg.obj
 0002:000005ec       ??_C@_0DF@CKIP@R6024?$AN?6?9?5not?5enough?5space?5for?5_o@ 0041b5ec     LIBC:crt0msg.obj
 0002:00000624       ??_C@_0CJ@GGOE@R6019?$AN?6?9?5unable?5to?5open?5console?5@ 0041b624     LIBC:crt0msg.obj
 0002:00000650       ??_C@_0CB@LBOB@R6018?$AN?6?9?5unexpected?5heap?5error?$AN?6@ 0041b650     LIBC:crt0msg.obj
 0002:00000674       ??_C@_0CN@FPEG@R6017?$AN?6?9?5unexpected?5multithread?5@ 0041b674     LIBC:crt0msg.obj
 0002:000006a4       ??_C@_0CM@OBIC@R6016?$AN?6?9?5not?5enough?5space?5for?5th@ 0041b6a4     LIBC:crt0msg.obj
 0002:000006d0       ??_C@_0CB@HPAL@?$AN?6abnormal?5program?5termination?$AN?6@ 0041b6d0     LIBC:crt0msg.obj
 0002:000006f4       ??_C@_0CM@JOOB@R6009?$AN?6?9?5not?5enough?5space?5for?5en@ 0041b6f4     LIBC:crt0msg.obj
 0002:00000720       ??_C@_0CK@OIBL@R6008?$AN?6?9?5not?5enough?5space?5for?5ar@ 0041b720     LIBC:crt0msg.obj
 0002:0000074c       ??_C@_0CF@LKPB@R6002?$AN?6?9?5floating?5point?5not?5load@ 0041b74c     LIBC:crt0msg.obj
 0002:00000774       ??_C@_0CF@JPDF@Microsoft?5Visual?5C?$CL?$CL?5Runtime?5Lib@ 0041b774     LIBC:crt0msg.obj
 0002:0000079c       ??_C@_02JJJH@?6?6?$AA@     0041b79c     LIBC:crt0msg.obj
 0002:000007a0       ??_C@_0BK@DEOK@Runtime?5Error?$CB?6?6Program?3?5?$AA@ 0041b7a0     LIBC:crt0msg.obj
 0002:000007bc       ??_C@_03NAME@?4?4?4?$AA@   0041b7bc     LIBC:crt0msg.obj
 0002:000007c0       ??_C@_0BH@NNCD@?$DMprogram?5name?5unknown?$DO?$AA@ 0041b7c0     LIBC:crt0msg.obj
 0002:000007d8       ___dnames                  0041b7d8     LIBC:timeset.obj
 0002:000007f0       ___mnames                  0041b7f0     LIBC:timeset.obj
 0002:00000818       ??_C@_02JHIA@TZ?$AA@       0041b818     LIBC:tzset.obj
 0002:0000081c       ??_C@_0BD@NJFP@GetLastActivePopup?$AA@ 0041b81c     LIBC:crtmbox.obj
 0002:00000830       ??_C@_0BA@GILI@GetActiveWindow?$AA@ 0041b830     LIBC:crtmbox.obj
 0002:00000840       ??_C@_0M@PKCK@MessageBoxA?$AA@ 0041b840     LIBC:crtmbox.obj
 0002:0000084c       ??_C@_0L@HKL@user32?4dll?$AA@ 0041b84c     LIBC:crtmbox.obj
 0002:00000858       ??_C@_06PAPI@1?$CDQNAN?$AA@ 0041b858     LIBC:x10fout.obj
 0002:00000860       ??_C@_05BGNL@1?$CDINF?$AA@ 0041b860     LIBC:x10fout.obj
 0002:00000868       ??_C@_05EDPF@1?$CDIND?$AA@ 0041b868     LIBC:x10fout.obj
 0002:00000870       ??_C@_06LKFM@1?$CDSNAN?$AA@ 0041b870     LIBC:x10fout.obj
 0002:00000890       __IMPORT_DESCRIPTOR_KERNEL32 0041b890     kernel32:KERNEL32.dll
 0002:000008a4       __IMPORT_DESCRIPTOR_libinchi 0041b8a4     libinchi:libinchi.dll
 0002:000008b8       __NULL_IMPORT_DESCRIPTOR   0041b8b8     kernel32:KERNEL32.dll
 0003:00000000       ___xc_a                    0041c000     LIBC:crt0init.obj
 0003:00000004       ___xc_z                    0041c004     LIBC:crt0init.obj
 0003:00000008       ___xi_a                    0041c008     LIBC:crt0init.obj
 0003:00000018       ___xi_z                    0041c018     LIBC:crt0init.obj
 0003:0000001c       ___xp_a                    0041c01c     LIBC:crt0init.obj
 0003:00000024       ___xp_z                    0041c024     LIBC:crt0init.obj
 0003:00000028       ___xt_a                    0041c028     LIBC:crt0init.obj
 0003:0000002c       ___xt_z                    0041c02c     LIBC:crt0init.obj
 0003:00000068       _e_gsMissing               0041c068     e_ichi_io.obj
 0003:00000074       _e_gsSpace                 0041c074     e_ichi_io.obj
 0003:00000078       _e_gsEqual                 0041c078     e_ichi_io.obj
 0003:00003160       __pctype                   0041f160     LIBC:ctype.obj
 0003:00003164       __pwctype                  0041f164     LIBC:ctype.obj
 0003:00003168       __ctype                    0041f168     LIBC:ctype.obj
 0003:0000336c       ___mb_cur_max              0041f36c     LIBC:nlsdata1.obj
 0003:00003370       ___decimal_point           0041f370     LIBC:nlsdata1.obj
 0003:00003374       ___decimal_point_length    0041f374     LIBC:nlsdata1.obj
 0003:0000337c       __fltused                  0041f37c     LIBC:fpinit.obj
 0003:00003380       __ldused                   0041f380     LIBC:fpinit.obj
 0003:00003384       __FPinit                   0041f384     LIBC:fpinit.obj
 0003:00003388       __FPmtinit                 0041f388     LIBC:fpinit.obj
 0003:0000338c       __FPmtterm                 0041f38c     LIBC:fpinit.obj
 0003:00003390       __iob                      0041f390     LIBC:_file.obj
 0003:00003610       __HUGE                     0041f610     LIBC:huge.obj
 0003:00003620       __aexit_rtn                0041f620     LIBC:crt0.obj
 0003:00003624       ___app_type                0041f624     LIBC:crt0.obj
 0003:00003628       __amblksiz                 0041f628     LIBC:heapinit.obj
 0003:0000362c       ___sbh_threshold           0041f62c     LIBC:sbheap.obj
 0003:00003708       __d_inf                    0041f708     LIBC:util.obj
 0003:00003710       __d_ind                    0041f710     LIBC:util.obj
 0003:00003718       __d_max                    0041f718     LIBC:util.obj
 0003:00003720       __d_min                    0041f720     LIBC:util.obj
 0003:00003728       __d_mzero                  0041f728     LIBC:util.obj
 0003:00003748       __cfltcvt_tab              0041f748     LIBC:cmiscdat.obj
 0003:00003760       ___badioinfo               0041f760     LIBC:ioinit.obj
 0003:00003768       ___nullstring              0041f768     LIBC:output.obj
 0003:0000376c       ___wnullstring             0041f76c     LIBC:output.obj
 0003:00003780       __XcptActTab               0041f780     LIBC:winxfltr.obj
 0003:000037f8       __First_FPE_Indx           0041f7f8     LIBC:winxfltr.obj
 0003:000037fc       __Num_FPE                  0041f7fc     LIBC:winxfltr.obj
 0003:00003800       __XcptActTabCount          0041f800     LIBC:winxfltr.obj
 0003:00003804       __fpecode                  0041f804     LIBC:winxfltr.obj
 0003:00003808       __NLG_Destination          0041f808     LIBC:exsup.obj
 0003:000038b0       __matherr_flag             0041f8b0     LIBC:matherr.obj
 0003:00003a58       __timezone                 0041fa58     LIBC:timeset.obj
 0003:00003a5c       __daylight                 0041fa5c     LIBC:timeset.obj
 0003:00003a60       __dstbias                  0041fa60     LIBC:timeset.obj
 0003:00003ae4       __tzname                   0041fae4     LIBC:timeset.obj
 0003:00003b0c       __lpdays                   0041fb0c     LIBC:days.obj
 0003:00003b40       __days                     0041fb40     LIBC:days.obj
 0003:00003c80       __pow10pos                 0041fc80     LIBC:constpow.obj
 0003:00003de0       __pow10neg                 0041fde0     LIBC:constpow.obj
 0003:00003f44       _e_gsEmpty                 0041ff44     e_ichi_io.obj
 0003:00003f48       _e_MaxPositiveClock        0041ff48     e_ichi_io.obj
 0003:00003f4c       _e_MinNegativeClock        0041ff4c     e_ichi_io.obj
 0003:00003f50       _e_HalfMaxPositiveClock    0041ff50     e_ichi_io.obj
 0003:00003f54       _e_HalfMinNegativeClock    0041ff54     e_ichi_io.obj
 0003:00004698       _e_bInterrupted            00420698     e_ichimain_a.obj
 0003:0000469c       _stop                      0042069c     e_ichimain_a.obj
 0003:000046f4       ___fastflag                004206f4     LIBC:fpinit.obj
 0003:000046f8       __adjust_fdiv              004206f8     LIBC:fpinit.obj
 0003:000046fc       __cflush                   004206fc     LIBC:_file.obj
 0003:00004708       _errno                     00420708     LIBC:crt0dat.obj
 0003:0000470c       __doserrno                 0042070c     LIBC:crt0dat.obj
 0003:00004710       __umaskval                 00420710     LIBC:crt0dat.obj
 0003:00004714       __osver                    00420714     LIBC:crt0dat.obj
 0003:00004718       __winver                   00420718     LIBC:crt0dat.obj
 0003:0000471c       __winmajor                 0042071c     LIBC:crt0dat.obj
 0003:00004720       __winminor                 00420720     LIBC:crt0dat.obj
 0003:00004724       ___argc                    00420724     LIBC:crt0dat.obj
 0003:00004728       ___argv                    00420728     LIBC:crt0dat.obj
 0003:0000472c       ___wargv                   0042072c     LIBC:crt0dat.obj
 0003:00004730       __environ                  00420730     LIBC:crt0dat.obj
 0003:00004734       ___initenv                 00420734     LIBC:crt0dat.obj
 0003:00004738       __wenviron                 00420738     LIBC:crt0dat.obj
 0003:0000473c       ___winitenv                0042073c     LIBC:crt0dat.obj
 0003:00004740       __pgmptr                   00420740     LIBC:crt0dat.obj
 0003:00004744       __wpgmptr                  00420744     LIBC:crt0dat.obj
 0003:00004748       __exitflag                 00420748     LIBC:crt0dat.obj
 0003:0000474c       __C_Termination_Done       0042074c     LIBC:crt0dat.obj
 0003:00004750       __C_Exit_Done              00420750     LIBC:crt0dat.obj
 0003:00004770       __aenvptr                  00420770     LIBC:crt0.obj
 0003:00004774       __wenvptr                  00420774     LIBC:crt0.obj
 0003:00004778       ___error_mode              00420778     LIBC:crt0.obj
 0003:0000477c       ?_pnhHeap@@3P6AHI@ZA       0042077c     LIBC:handler.obj
 0003:00004780       __newmode                  00420780     LIBC:_newmode.obj
 0003:00004798       __stdbuf                   00420798     LIBC:_sftbuf.obj
 0003:000047bc       ___lc_handle               004207bc     LIBC:nlsdata2.obj
 0003:000047d4       ___lc_codepage             004207d4     LIBC:nlsdata2.obj
 0003:000047d8       ___lc_collate_cp           004207d8     LIBC:nlsdata2.obj
 0003:000047dc       __pxcptinfoptrs            004207dc     LIBC:winxfltr.obj
 0003:000048e8       __adbgmsg                  004208e8     LIBC:crt0msg.obj
 0003:00004920       __commode                  00420920     LIBC:ncommode.obj
 0003:000049f4       __fmode                    004209f4     LIBC:txtmode.obj
 0003:000049fc       ___mbcodepage              004209fc     <common>
 0003:00004a00       ___mbulinfo                00420a00     <common>
 0003:00004a0c       ___ismbcodepage            00420a0c     <common>
 0003:00004a20       __mbcasemap                00420a20     <common>
 0003:00004b20       __mbctype                  00420b20     <common>
 0003:00004c24       ___mblcid                  00420c24     <common>
 0003:00004c40       ___pioinfo                 00420c40     <common>
 0003:00004d40       __nhandle                  00420d40     <common>
 0003:00004d44       ___sbh_sizeHeaderList      00420d44     <common>
 0003:00004d48       ___sbh_indGroupDefer       00420d48     <common>
 0003:00004d4c       ___sbh_pHeaderScan         00420d4c     <common>
 0003:00004d50       ___sbh_pHeaderDefer        00420d50     <common>
 0003:00004d54       ___sbh_cntHeaderList       00420d54     <common>
 0003:00004d58       ___sbh_pHeaderList         00420d58     <common>
 0003:00004d5c       __crtheap                  00420d5c     <common>
 0003:00004d60       __acmdln                   00420d60     <common>
 0003:00004d64       ___env_initialized         00420d64     <common>
 0003:00004d68       ___mbctype_initialized     00420d68     <common>
 0003:00004d6c       ___onexitend               00420d6c     <common>
 0003:00004d70       ___onexitbegin             00420d70     <common>
 0003:00004d74       ___piob                    00420d74     <common>
 0003:00004d80       __bufin                    00420d80     <common>
 0003:00005d80       __nstream                  00421d80     <common>

 entry point at        0001:00012b85

 Static symbols

 0001:0000e7d0       _mol_read_hdr              0040f7d0 f   e_readmol.obj
 0001:0000e9e0       _mol_read_datum            0040f9e0 f   e_readmol.obj
 0001:0000eda0       _mol_copy_check_empty      0040fda0 f   e_readmol.obj
 0001:0000ee30       _mol_read_counts_line      0040fe30 f   e_readmol.obj
 0001:0000f030       _e_RemoveNonPrintable      00410030 f   e_readmol.obj
 0001:0000f060       _read_atom_block           00410060 f   e_readmol.obj
 0001:0000f4f0       _read_bonds_block          004104f0 f   e_readmol.obj
 0001:0000f710       _read_stext_block          00410710 f   e_readmol.obj
 0001:0000f7a0       _read_properties_block     004107a0 f   e_readmol.obj
 0001:00010530       _extract_cas_rn            00411530 f   e_readmol.obj
 0001:000105b0       _identify_sdf_label        004115b0 f   e_readmol.obj
 0001:00007ab0       _bMatchOnePrefix           00408ab0 f   e_ichi_parms.obj
 0001:00004910       _InchiClock                00405910 f   e_ichi_io.obj
 0001:00004a20       _FillMaxMinClock           00405a20 f   e_ichi_io.obj
 0001:00000390       _e_GetElType               00401390 f   e_0dstereo.obj
 0001:00000dc0       _ee_extract_ChargeRadical  00401dc0 f   e_0dstereo.obj
 0001:00000f40       _ee_extract_H_atoms        00401f40 f   e_0dstereo.obj
 0001:00001080       _e_set_stereo_bonds_parity 00402080 f   e_0dstereo.obj
 0001:00001910       _e_FixSb0DParities         00402910 f   e_0dstereo.obj
 0001:00001dc0       _e_dot_prodchar3           00402dc0 f   e_0dstereo.obj
 0001:00001e20       _e_triple_prod_char        00402e20 f   e_0dstereo.obj
 0001:00001fd0       _e_len3                    00402fd0 f   e_0dstereo.obj
 0001:00002000       _e_add3                    00403000 f   e_0dstereo.obj
 0001:00002030       _e_mult3                   00403030 f   e_0dstereo.obj
 0001:00002060       _e_triple_prod             00403060 f   e_0dstereo.obj
 0001:00002100       _e_dot_prod3               00403100 f   e_0dstereo.obj
 0001:00002120       _e_cross_prod3             00403120 f   e_0dstereo.obj
 0001:00002180       _e_nNumNonMetalNeigh       00403180 f   e_0dstereo.obj
 0001:00002210       _e_half_stereo_bond_parity 00403210 f   e_0dstereo.obj
 0001:00002a90       _e_get_z_coord             00403a90 f   e_0dstereo.obj
 0001:00002bf0       _e_len2                    00403bf0 f   e_0dstereo.obj
 0001:00002c10       _e_diff3                   00403c10 f   e_0dstereo.obj
 0001:00002c40       _e_copy3                   00403c40 f   e_0dstereo.obj
 0001:00002c70       _e_set_stereo_atom_parity  00403c70 f   e_0dstereo.obj
 0001:00003350       _e_change_sign3            00404350 f   e_0dstereo.obj
 0001:00003370       _e_Get2DTetrahedralAmbiguity 00404370 f   e_0dstereo.obj
 0001:00003b90       _e_CompDble                00404b90 f   e_0dstereo.obj
 0001:00003bd0       _e_triple_prod_and_min_abs_sine2 00404bd0 f   e_0dstereo.obj
 0001:000041d0       _are_3_vect_in_one_plane   004051d0 f   e_0dstereo.obj
 0001:00004210       _e_triple_prod_and_min_abs_sine 00405210 f   e_0dstereo.obj
 0001:00004300       _e_are_4at_in_one_plane    00405300 f   e_0dstereo.obj
 0001:000043c0       _e_bCanInpAtomBeAStereoCenter 004053c0 f   e_0dstereo.obj
 0001:00019a58       _findenv                   0041aa58 f   LIBC:setenv.obj
 0001:00019ab0       _copy_environ              0041aab0 f   LIBC:setenv.obj
 0001:000157df       _strncnt                   004167df f   LIBC:a_map.obj
 0001:000188be       _getSystemCP               004198be f   LIBC:mbctype.obj
 0001:00018908       _CPtoLCID                  00419908 f   LIBC:mbctype.obj
 0001:0001893b       _setSBCS                   0041993b f   LIBC:mbctype.obj
 0001:00018964       _setSBUpLow                00419964 f   LIBC:mbctype.obj
 0001:00018460       LeadUp1                    00419460 f   LIBC:memcpy.obj
 0001:0001848c       LeadUp2                    0041948c f   LIBC:memcpy.obj
 0001:000184b0       LeadUp3                    004194b0 f   LIBC:memcpy.obj
 0001:0001852f       UnwindUp0                  0041952f f   LIBC:memcpy.obj
 0001:0001851c       UnwindUp1                  0041951c f   LIBC:memcpy.obj
 0001:00018514       UnwindUp2                  00419514 f   LIBC:memcpy.obj
 0001:0001850c       UnwindUp3                  0041950c f   LIBC:memcpy.obj
 0001:00018504       UnwindUp4                  00419504 f   LIBC:memcpy.obj
 0001:000184fc       UnwindUp5                  004194fc f   LIBC:memcpy.obj
 0001:000184f4       UnwindUp6                  004194f4 f   LIBC:memcpy.obj
 0001:000184ec       UnwindUp7                  004194ec f   LIBC:memcpy.obj
 0001:00018548       TrailUp0                   00419548 f   LIBC:memcpy.obj
 0001:00018550       TrailUp1                   00419550 f   LIBC:memcpy.obj
 0001:0001855c       TrailUp2                   0041955c f   LIBC:memcpy.obj
 0001:00018570       TrailUp3                   00419570 f   LIBC:memcpy.obj
 0001:000185e8       LeadDown1                  004195e8 f   LIBC:memcpy.obj
 0001:00018608       LeadDown2                  00419608 f   LIBC:memcpy.obj
 0001:00018630       LeadDown3                  00419630 f   LIBC:memcpy.obj
 0001:00018684       UnwindDown7                00419684 f   LIBC:memcpy.obj
 0001:0001868c       UnwindDown6                0041968c f   LIBC:memcpy.obj
 0001:00018694       UnwindDown5                00419694 f   LIBC:memcpy.obj
 0001:0001869c       UnwindDown4                0041969c f   LIBC:memcpy.obj
 0001:000186a4       UnwindDown3                004196a4 f   LIBC:memcpy.obj
 0001:000186ac       UnwindDown2                004196ac f   LIBC:memcpy.obj
 0001:000186b4       UnwindDown1                004196b4 f   LIBC:memcpy.obj
 0001:000186c7       UnwindDown0                004196c7 f   LIBC:memcpy.obj
 0001:000186e0       TrailDown0                 004196e0 f   LIBC:memcpy.obj
 0001:000186e8       TrailDown1                 004196e8 f   LIBC:memcpy.obj
 0001:000186f8       TrailDown2                 004196f8 f   LIBC:memcpy.obj
 0001:0001870c       TrailDown3                 0041970c f   LIBC:memcpy.obj
 0001:000182a2       _cvtdate                   004192a2 f   LIBC:tzset.obj
 0001:000167ed       __abstract_cw              004177ed f   LIBC:ieee87.obj
 0001:0001687f       __hw_cw                    0041787f f   LIBC:ieee87.obj
 0001:00016420       _gu_return                 00417420 f   LIBC:exsup.obj
 0001:00016428       __unwind_handler           00417428 f   LIBC:exsup.obj
 0001:00016121       _parse_cmdline             00417121 f   LIBC:stdargv.obj
 0001:00015f8c       _xcptlookup                00416f8c f   LIBC:winxfltr.obj
 0001:000157df       _strncnt                   004167df f   LIBC:a_map.obj
 0001:0001525c       _write_char                0041625c f   LIBC:output.obj
 0001:00015291       _write_multi_char          00416291 f   LIBC:output.obj
 0001:000152c2       _write_string              004162c2 f   LIBC:output.obj
 0001:000152fa       _get_int_arg               004162fa f   LIBC:output.obj
 0001:00015307       _get_int64_arg             00416307 f   LIBC:output.obj
 0001:00015317       _get_short_arg             00416317 f   LIBC:output.obj
 0001:000149e4       _flsall                    004159e4 f   LIBC:fflush.obj
 0001:00014681       __cftoe_g                  00415681 f   LIBC:cvt.obj
 0001:000146a8       __cftof_g                  004156a8 f   LIBC:cvt.obj
 0001:0001471c       __shift                    0041571c f   LIBC:cvt.obj
 0001:0001404f       __get_fname                0041504f f   LIBC:fpexcept.obj
 0001:00012c89       _fast_error_exit           00413c89 f   LIBC:crt0.obj
 0001:0001227e       _doexit                    0041327e f   LIBC:crt0dat.obj
 0001:00012317       __initterm                 00413317 f   LIBC:crt0dat.obj
 0001:00011adc       _strtoxl                   00412adc f   LIBC:strtol.obj
 0001:00011800       LeadUp1                    00412800 f   LIBC:memmove.obj
 0001:0001182c       LeadUp2                    0041282c f   LIBC:memmove.obj
 0001:00011850       LeadUp3                    00412850 f   LIBC:memmove.obj
 0001:000118cf       UnwindUp0                  004128cf f   LIBC:memmove.obj
 0001:000118bc       UnwindUp1                  004128bc f   LIBC:memmove.obj
 0001:000118b4       UnwindUp2                  004128b4 f   LIBC:memmove.obj
 0001:000118ac       UnwindUp3                  004128ac f   LIBC:memmove.obj
 0001:000118a4       UnwindUp4                  004128a4 f   LIBC:memmove.obj
 0001:0001189c       UnwindUp5                  0041289c f   LIBC:memmove.obj
 0001:00011894       UnwindUp6                  00412894 f   LIBC:memmove.obj
 0001:0001188c       UnwindUp7                  0041288c f   LIBC:memmove.obj
 0001:000118e8       TrailUp0                   004128e8 f   LIBC:memmove.obj
 0001:000118f0       TrailUp1                   004128f0 f   LIBC:memmove.obj
 0001:000118fc       TrailUp2                   004128fc f   LIBC:memmove.obj
 0001:00011910       TrailUp3                   00412910 f   LIBC:memmove.obj
 0001:00011988       LeadDown1                  00412988 f   LIBC:memmove.obj
 0001:000119a8       LeadDown2                  004129a8 f   LIBC:memmove.obj
 0001:000119d0       LeadDown3                  004129d0 f   LIBC:memmove.obj
 0001:00011a24       UnwindDown7                00412a24 f   LIBC:memmove.obj
 0001:00011a2c       UnwindDown6                00412a2c f   LIBC:memmove.obj
 0001:00011a34       UnwindDown5                00412a34 f   LIBC:memmove.obj
 0001:00011a3c       UnwindDown4                00412a3c f   LIBC:memmove.obj
 0001:00011a44       UnwindDown3                00412a44 f   LIBC:memmove.obj
 0001:00011a4c       UnwindDown2                00412a4c f   LIBC:memmove.obj
 0001:00011a54       UnwindDown1                00412a54 f   LIBC:memmove.obj
 0001:00011a67       UnwindDown0                00412a67 f   LIBC:memmove.obj
 0001:00011a80       TrailDown0                 00412a80 f   LIBC:memmove.obj
 0001:00011a88       TrailDown1                 00412a88 f   LIBC:memmove.obj
 0001:00011a98       TrailDown2                 00412a98 f   LIBC:memmove.obj
 0001:00011aac       TrailDown3                 00412aac f   LIBC:memmove.obj
